; Function Attrs: inlinehint mustprogress nounwind uwtable
define internal fastcc void @_ZN8QuantLib12_GLOBAL__N_113alpha_adapterD2Ev(ptr nocapture noundef nonnull readonly align 8 dereferenceable(32) %this) unnamed_addr #4 align 2 personality ptr @__gxx_personality_v0 {
entry:
  %pn.i = getelementptr inbounds nuw i8, ptr %this, i64 24
  %0 = load ptr, ptr %pn.i, align 8, !tbaa !37
  %cmp.not.i.i = icmp eq ptr %0, null
  br i1 %cmp.not.i.i, label %_ZN5boost10shared_ptrIN8QuantLib18YieldTermStructureEED2Ev.exit, label %if.then.i.i

if.then.i.i:                                      ; preds = %entry
  %use_count_.i.i.i = getelementptr inbounds nuw i8, ptr %0, i64 8
  %1 = atomicrmw sub ptr %use_count_.i.i.i, i32 1 acq_rel, align 4
  %cmp.i.i.i = icmp eq i32 %1, 1
  br i1 %cmp.i.i.i, label %if.then.i.i.i, label %_ZN5boost10shared_ptrIN8QuantLib18YieldTermStructureEED2Ev.exit

if.then.i.i.i:                                    ; preds = %if.then.i.i
  %vtable.i.i.i = load ptr, ptr %0, align 8, !tbaa !35
  %vfn.i.i.i = getelementptr inbounds i8, ptr %vtable.i.i.i, i64 16
  %2 = load ptr, ptr %vfn.i.i.i, align 8
  invoke void %2(ptr noundef nonnull align 8 dereferenceable(16) %0)
          to label %.noexc.i.i unwind label %terminate.lpad.i.i

.noexc.i.i:                                       ; preds = %if.then.i.i.i
  %weak_count_.i.i.i.i = getelementptr inbounds nuw i8, ptr %0, i64 12
  %3 = atomicrmw sub ptr %weak_count_.i.i.i.i, i32 1 acq_rel, align 4
  %cmp.i.i.i.i = icmp eq i32 %3, 1
  br i1 %cmp.i.i.i.i, label %if.then.i.i.i.i, label %_ZN5boost10shared_ptrIN8QuantLib18YieldTermStructureEED2Ev.exit

if.then.i.i.i.i:                                  ; preds = %.noexc.i.i
  %vtable.i.i.i.i = load ptr, ptr %0, align 8, !tbaa !35
  %vfn.i.i.i.i = getelementptr inbounds i8, ptr %vtable.i.i.i.i, i64 24
  %4 = load ptr, ptr %vfn.i.i.i.i, align 8
  invoke void %4(ptr noundef nonnull align 8 dereferenceable(16) %0)
          to label %_ZN5boost10shared_ptrIN8QuantLib18YieldTermStructureEED2Ev.exit unwind label %terminate.lpad.i.i

terminate.lpad.i.i:                               ; preds = %if.then.i.i.i.i, %if.then.i.i.i
  %5 = landingpad { ptr, i32 }
          catch ptr null
  %6 = extractvalue { ptr, i32 } %5, 0
  tail call void @__clang_call_terminate(ptr %6) #31
  unreachable

_ZN5boost10shared_ptrIN8QuantLib18YieldTermStructureEED2Ev.exit: ; preds = %entry, %if.then.i.i, %.noexc.i.i, %if.then.i.i.i.i
  %pn.i1 = getelementptr inbounds nuw i8, ptr %this, i64 8
  %7 = load ptr, ptr %pn.i1, align 8, !tbaa !37
  %cmp.not.i.i2 = icmp eq ptr %7, null
  br i1 %cmp.not.i.i2, label %_ZN5boost10shared_ptrIN8QuantLib18YieldTermStructureEED2Ev.exit16, label %if.then.i.i3

if.then.i.i3:                                     ; preds = %_ZN5boost10shared_ptrIN8QuantLib18YieldTermStructureEED2Ev.exit
  %use_count_.i.i.i4 = getelementptr inbounds nuw i8, ptr %7, i64 8
  %8 = atomicrmw sub ptr %use_count_.i.i.i4, i32 1 acq_rel, align 4
  %cmp.i.i.i5 = icmp eq i32 %8, 1
  br i1 %cmp.i.i.i5, label %if.then.i.i.i6, label %_ZN5boost10shared_ptrIN8QuantLib18YieldTermStructureEED2Ev.exit16

if.then.i.i.i6:                                   ; preds = %if.then.i.i3
  %vtable.i.i.i7 = load ptr, ptr %7, align 8, !tbaa !35
  %vfn.i.i.i8 = getelementptr inbounds i8, ptr %vtable.i.i.i7, i64 16
  %9 = load ptr, ptr %vfn.i.i.i8, align 8
  invoke void %9(ptr noundef nonnull align 8 dereferenceable(16) %7)
          to label %.noexc.i.i10 unwind label %terminate.lpad.i.i9

.noexc.i.i10:                                     ; preds = %if.then.i.i.i6
  %weak_count_.i.i.i.i11 = getelementptr inbounds nuw i8, ptr %7, i64 12
  %10 = atomicrmw sub ptr %weak_count_.i.i.i.i11, i32 1 acq_rel, align 4
  %cmp.i.i.i.i12 = icmp eq i32 %10, 1
  br i1 %cmp.i.i.i.i12, label %if.then.i.i.i.i13, label %_ZN5boost10shared_ptrIN8QuantLib18YieldTermStructureEED2Ev.exit16

if.then.i.i.i.i13:                                ; preds = %.noexc.i.i10
  %vtable.i.i.i.i14 = load ptr, ptr %7, align 8, !tbaa !35
  %vfn.i.i.i.i15 = getelementptr inbounds i8, ptr %vtable.i.i.i.i14, i64 24
  %11 = load ptr, ptr %vfn.i.i.i.i15, align 8
  invoke void %11(ptr noundef nonnull align 8 dereferenceable(16) %7)
          to label %_ZN5boost10shared_ptrIN8QuantLib18YieldTermStructureEED2Ev.exit16 unwind label %terminate.lpad.i.i9

terminate.lpad.i.i9:                              ; preds = %if.then.i.i.i.i13, %if.then.i.i.i6
  %12 = landingpad { ptr, i32 }
          catch ptr null
  %13 = extractvalue { ptr, i32 } %12, 0
  tail call void @__clang_call_terminate(ptr %13) #31
  unreachable

_ZN5boost10shared_ptrIN8QuantLib18YieldTermStructureEED2Ev.exit16: ; preds = %_ZN5boost10shared_ptrIN8QuantLib18YieldTermStructureEED2Ev.exit, %if.then.i.i3, %.noexc.i.i10, %if.then.i.i.i.i13
  ret void
}